; Function Attrs: nounwind uwtable
define internal fastcc void @exec_command_reset(ptr noundef %0, i1 noundef zeroext %1, ptr noundef %2) unnamed_addr #0 {
  br i1 %1, label %4, label %9

4:                                                ; preds = %3
  tail call void @resetPQExpBuffer(ptr noundef %2) #16
  tail call void @psql_scan_reset(ptr noundef %0) #16
  %5 = load i8, ptr getelementptr inbounds nuw (i8, ptr @pset, i64 402), align 2, !range !4, !noundef !5
  %6 = trunc nuw i8 %5 to i1
  br i1 %6, label %9, label %7

7:                                                ; preds = %4
  %8 = tail call i32 @puts(ptr noundef nonnull dereferenceable(1) @.str.266)
  br label %9

9:                                                ; preds = %4, %7, %3
  ret void
}